; Function Attrs: mustprogress uwtable
define hidden noundef ptr @_ZN7datalog16relation_manager11mk_widen_fnERKNS_10table_baseES3_PS2_(ptr noundef nonnull readnone align 8 captures(none) dereferenceable(200) %0, ptr noundef nonnull align 8 dereferenceable(36) %1, ptr noundef nonnull align 8 dereferenceable(36) %2, ptr noundef %3) local_unnamed_addr #4 align 2 {
  %5 = getelementptr inbounds nuw i8, ptr %1, i64 8
  %6 = load ptr, ptr %5, align 8, !tbaa !382
  %7 = load ptr, ptr %6, align 8, !tbaa !3
  %8 = getelementptr inbounds nuw i8, ptr %7, i64 128
  %9 = load ptr, ptr %8, align 8
  %10 = tail call noundef ptr %9(ptr noundef nonnull align 8 dereferenceable(32) %6, ptr noundef nonnull align 8 dereferenceable(36) %1, ptr noundef nonnull align 8 dereferenceable(36) %2, ptr noundef %3)
  %.not = icmp eq ptr %10, null
  br i1 %.not, label %11, label %_ZN7datalog16relation_manager11mk_union_fnERKNS_10table_baseES3_PS2_.exit

11:                                               ; preds = %4
  %12 = load ptr, ptr %5, align 8, !tbaa !382
  %13 = getelementptr inbounds nuw i8, ptr %2, i64 8
  %14 = load ptr, ptr %13, align 8, !tbaa !382
  %.not31 = icmp eq ptr %12, %14
  br i1 %.not31, label %20, label %15

15:                                               ; preds = %11
  %16 = load ptr, ptr %14, align 8, !tbaa !3
  %17 = getelementptr inbounds nuw i8, ptr %16, i64 128
  %18 = load ptr, ptr %17, align 8
  %19 = tail call noundef ptr %18(ptr noundef nonnull align 8 dereferenceable(32) %14, ptr noundef nonnull align 8 dereferenceable(36) %1, ptr noundef nonnull align 8 dereferenceable(36) %2, ptr noundef %3)
  br label %20

20:                                               ; preds = %15, %11
  %.0 = phi ptr [ %19, %15 ], [ null, %11 ]
  %21 = icmp eq ptr %.0, null
  %22 = icmp ne ptr %3, null
  %or.cond = and i1 %22, %21
  br i1 %or.cond, label %23, label %33

23:                                               ; preds = %20
  %24 = load ptr, ptr %5, align 8, !tbaa !382
  %25 = getelementptr inbounds nuw i8, ptr %3, i64 8
  %26 = load ptr, ptr %25, align 8, !tbaa !382
  %.not32 = icmp eq ptr %24, %26
  %27 = load ptr, ptr %13, align 8
  %.not33 = icmp eq ptr %27, %26
  %or.cond44 = select i1 %.not32, i1 true, i1 %.not33
  br i1 %or.cond44, label %.thread37, label %28

28:                                               ; preds = %23
  %29 = load ptr, ptr %26, align 8, !tbaa !3
  %30 = getelementptr inbounds nuw i8, ptr %29, i64 128
  %31 = load ptr, ptr %30, align 8
  %32 = tail call noundef ptr %31(ptr noundef nonnull align 8 dereferenceable(32) %26, ptr noundef nonnull align 8 dereferenceable(36) %1, ptr noundef nonnull align 8 dereferenceable(36) %2, ptr noundef nonnull %3)
  br label %33

33:                                               ; preds = %28, %20
  %.1 = phi ptr [ %32, %28 ], [ %.0, %20 ]
  %.not34 = icmp eq ptr %.1, null
  br i1 %.not34, label %..thread37_crit_edge, label %_ZN7datalog16relation_manager11mk_union_fnERKNS_10table_baseES3_PS2_.exit

..thread37_crit_edge:                             ; preds = %33
  %.pre = load ptr, ptr %5, align 8, !tbaa !382
  br label %.thread37

.thread37:                                        ; preds = %..thread37_crit_edge, %23
  %34 = phi ptr [ %.pre, %..thread37_crit_edge ], [ %24, %23 ]
  %35 = load ptr, ptr %34, align 8, !tbaa !3
  %36 = getelementptr inbounds nuw i8, ptr %35, i64 120
  %37 = load ptr, ptr %36, align 8
  %38 = tail call noundef ptr %37(ptr noundef nonnull align 8 dereferenceable(32) %34, ptr noundef nonnull align 8 dereferenceable(36) %1, ptr noundef nonnull align 8 dereferenceable(36) %2, ptr noundef %3)
  %.not.i = icmp eq ptr %38, null
  br i1 %.not.i, label %39, label %_ZN7datalog16relation_manager11mk_union_fnERKNS_10table_baseES3_PS2_.exit

39:                                               ; preds = %.thread37
  %40 = load ptr, ptr %5, align 8, !tbaa !382
  %41 = load ptr, ptr %13, align 8, !tbaa !382
  %.not27.i = icmp eq ptr %40, %41
  br i1 %.not27.i, label %47, label %42

42:                                               ; preds = %39
  %43 = load ptr, ptr %41, align 8, !tbaa !3
  %44 = getelementptr inbounds nuw i8, ptr %43, i64 120
  %45 = load ptr, ptr %44, align 8
  %46 = tail call noundef ptr %45(ptr noundef nonnull align 8 dereferenceable(32) %41, ptr noundef nonnull align 8 dereferenceable(36) %1, ptr noundef nonnull align 8 dereferenceable(36) %2, ptr noundef %3)
  br label %47

47:                                               ; preds = %42, %39
  %.0.i = phi ptr [ %46, %42 ], [ null, %39 ]
  %48 = icmp eq ptr %.0.i, null
  %or.cond.i = and i1 %22, %48
  br i1 %or.cond.i, label %49, label %59

49:                                               ; preds = %47
  %50 = load ptr, ptr %5, align 8, !tbaa !382
  %51 = getelementptr inbounds nuw i8, ptr %3, i64 8
  %52 = load ptr, ptr %51, align 8, !tbaa !382
  %.not28.i = icmp eq ptr %50, %52
  %53 = load ptr, ptr %13, align 8
  %.not29.i = icmp eq ptr %53, %52
  %or.cond40.i = select i1 %.not28.i, i1 true, i1 %.not29.i
  br i1 %or.cond40.i, label %.thread33.i, label %54

54:                                               ; preds = %49
  %55 = load ptr, ptr %52, align 8, !tbaa !3
  %56 = getelementptr inbounds nuw i8, ptr %55, i64 120
  %57 = load ptr, ptr %56, align 8
  %58 = tail call noundef ptr %57(ptr noundef nonnull align 8 dereferenceable(32) %52, ptr noundef nonnull align 8 dereferenceable(36) %1, ptr noundef nonnull align 8 dereferenceable(36) %2, ptr noundef nonnull %3)
  br label %59

59:                                               ; preds = %54, %47
  %.1.i = phi ptr [ %58, %54 ], [ %.0.i, %47 ]
  %.not30.i = icmp eq ptr %.1.i, null
  br i1 %.not30.i, label %.thread33.i, label %_ZN7datalog16relation_manager11mk_union_fnERKNS_10table_baseES3_PS2_.exit

.thread33.i:                                      ; preds = %59, %49
  %60 = tail call noalias noundef ptr @_ZN6memory8allocateEm(i64 noundef 16)
  store ptr getelementptr inbounds nuw inrange(-16, 24) (i8, ptr @_ZTVN7datalog16relation_manager22default_table_union_fnE, i64 16), ptr %60, align 8, !tbaa !3
  %61 = getelementptr inbounds nuw i8, ptr %60, i64 8
  store ptr null, ptr %61, align 8, !tbaa !373
  br label %_ZN7datalog16relation_manager11mk_union_fnERKNS_10table_baseES3_PS2_.exit

_ZN7datalog16relation_manager11mk_union_fnERKNS_10table_baseES3_PS2_.exit: ; preds = %4, %.thread33.i, %59, %.thread37, %33
  %.2 = phi ptr [ %.1, %33 ], [ %.1.i, %59 ], [ %60, %.thread33.i ], [ %38, %.thread37 ], [ %10, %4 ]
  ret ptr %.2
}